ARM GAS  C:\Users\BRAULI~1\AppData\Local\Temp\ccIX6112.s 			page 1


   1              		.syntax unified
   2              		.cpu cortex-m3
   3              		.fpu softvfp
   4              		.eabi_attribute 20, 1
   5              		.eabi_attribute 21, 1
   6              		.eabi_attribute 23, 3
   7              		.eabi_attribute 24, 1
   8              		.eabi_attribute 25, 1
   9              		.eabi_attribute 26, 1
  10              		.eabi_attribute 30, 1
  11              		.eabi_attribute 34, 1
  12              		.eabi_attribute 18, 4
  13              		.thumb
  14              		.syntax unified
  15              		.file	"main.c"
  16              		.text
  17              	.Ltext0:
  18              		.cfi_sections	.debug_frame
  19              		.section	.text.goRobot,"ax",%progbits
  20              		.align	2
  21              		.global	goRobot
  22              		.thumb
  23              		.thumb_func
  24              		.type	goRobot, %function
  25              	goRobot:
  26              	.LFB64:
  27              		.file 1 "main.c"
   1:main.c        ****  #include "project.h"
   2:main.c        **** #include "string.h"
   3:main.c        **** #include "stdio.h"
   4:main.c        **** #include "string.h"
   5:main.c        **** #include "stdlib.h"
   6:main.c        **** 
   7:main.c        **** #define StringToPrint_SIZE 32
   8:main.c        **** #define PWM 120
   9:main.c        **** char StringToPrint[StringToPrint_SIZE];
  10:main.c        ****  
  11:main.c        **** int value_counter=0; 
  12:main.c        **** int con= 0; 
  13:main.c        **** int stop = 0;
  14:main.c        **** int comp = 0;
  15:main.c        **** int dataIn = 0;
  16:main.c        **** int robot_state;
  17:main.c        **** int state; 
  18:main.c        **** int i=0;
  19:main.c        **** 
  20:main.c        **** float distancia=0.0;        
  21:main.c        ****                
  22:main.c        **** char data[2];
  23:main.c        **** char string[3];
  24:main.c        **** char dato_lit_car; 
  25:main.c        **** 
  26:main.c        **** enum{
  27:main.c        ****     AUTONOMOUS,
  28:main.c        ****     CONTROLLER,
  29:main.c        ****     AVOID
  30:main.c        **** };
ARM GAS  C:\Users\BRAULI~1\AppData\Local\Temp\ccIX6112.s 			page 2


  31:main.c        **** 
  32:main.c        **** void goRobot(){
  28              		.loc 1 32 0
  29              		.cfi_startproc
  30              		@ args = 0, pretend = 0, frame = 0
  31              		@ frame_needed = 0, uses_anonymous_args = 0
  32 0000 08B5     		push	{r3, lr}
  33              		.cfi_def_cfa_offset 8
  34              		.cfi_offset 3, -8
  35              		.cfi_offset 14, -4
  33:main.c        ****     PWM_WriteCompare1(PWM);  
  36              		.loc 1 33 0
  37 0002 7820     		movs	r0, #120
  38 0004 FFF7FEFF 		bl	PWM_WriteCompare1
  39              	.LVL0:
  34:main.c        ****     PWM_1_WriteCompare1(PWM);
  40              		.loc 1 34 0
  41 0008 7820     		movs	r0, #120
  42 000a FFF7FEFF 		bl	PWM_1_WriteCompare1
  43              	.LVL1:
  35:main.c        ****     PWM_2_WriteCompare1(PWM); 
  44              		.loc 1 35 0
  45 000e 7820     		movs	r0, #120
  46 0010 FFF7FEFF 		bl	PWM_2_WriteCompare1
  47              	.LVL2:
  36:main.c        ****     PWM_3_WriteCompare1(PWM);
  48              		.loc 1 36 0
  49 0014 7820     		movs	r0, #120
  50 0016 FFF7FEFF 		bl	PWM_3_WriteCompare1
  51              	.LVL3:
  37:main.c        ****         
  38:main.c        ****     PWM_WriteCompare2(0);
  52              		.loc 1 38 0
  53 001a 0020     		movs	r0, #0
  54 001c FFF7FEFF 		bl	PWM_WriteCompare2
  55              	.LVL4:
  39:main.c        ****     PWM_1_WriteCompare2(0);
  56              		.loc 1 39 0
  57 0020 0020     		movs	r0, #0
  58 0022 FFF7FEFF 		bl	PWM_1_WriteCompare2
  59              	.LVL5:
  40:main.c        ****     PWM_2_WriteCompare2(0);
  60              		.loc 1 40 0
  61 0026 0020     		movs	r0, #0
  62 0028 FFF7FEFF 		bl	PWM_2_WriteCompare2
  63              	.LVL6:
  41:main.c        ****     PWM_3_WriteCompare2(0);
  64              		.loc 1 41 0
  65 002c 0020     		movs	r0, #0
  66 002e FFF7FEFF 		bl	PWM_3_WriteCompare2
  67              	.LVL7:
  68 0032 08BD     		pop	{r3, pc}
  69              		.cfi_endproc
  70              	.LFE64:
  71              		.size	goRobot, .-goRobot
  72              		.section	.text.backRobot,"ax",%progbits
  73              		.align	2
ARM GAS  C:\Users\BRAULI~1\AppData\Local\Temp\ccIX6112.s 			page 3


  74              		.global	backRobot
  75              		.thumb
  76              		.thumb_func
  77              		.type	backRobot, %function
  78              	backRobot:
  79              	.LFB65:
  42:main.c        **** }
  43:main.c        **** 
  44:main.c        **** void backRobot(){
  80              		.loc 1 44 0
  81              		.cfi_startproc
  82              		@ args = 0, pretend = 0, frame = 0
  83              		@ frame_needed = 0, uses_anonymous_args = 0
  84 0000 08B5     		push	{r3, lr}
  85              		.cfi_def_cfa_offset 8
  86              		.cfi_offset 3, -8
  87              		.cfi_offset 14, -4
  45:main.c        ****     PWM_WriteCompare1(0);  
  88              		.loc 1 45 0
  89 0002 0020     		movs	r0, #0
  90 0004 FFF7FEFF 		bl	PWM_WriteCompare1
  91              	.LVL8:
  46:main.c        ****     PWM_1_WriteCompare1(0);
  92              		.loc 1 46 0
  93 0008 0020     		movs	r0, #0
  94 000a FFF7FEFF 		bl	PWM_1_WriteCompare1
  95              	.LVL9:
  47:main.c        ****     PWM_2_WriteCompare1(0); 
  96              		.loc 1 47 0
  97 000e 0020     		movs	r0, #0
  98 0010 FFF7FEFF 		bl	PWM_2_WriteCompare1
  99              	.LVL10:
  48:main.c        ****     PWM_3_WriteCompare1(0);
 100              		.loc 1 48 0
 101 0014 0020     		movs	r0, #0
 102 0016 FFF7FEFF 		bl	PWM_3_WriteCompare1
 103              	.LVL11:
  49:main.c        ****         
  50:main.c        ****     PWM_WriteCompare2(PWM);
 104              		.loc 1 50 0
 105 001a 7820     		movs	r0, #120
 106 001c FFF7FEFF 		bl	PWM_WriteCompare2
 107              	.LVL12:
  51:main.c        ****     PWM_1_WriteCompare2(PWM);
 108              		.loc 1 51 0
 109 0020 7820     		movs	r0, #120
 110 0022 FFF7FEFF 		bl	PWM_1_WriteCompare2
 111              	.LVL13:
  52:main.c        ****     PWM_2_WriteCompare2(PWM);
 112              		.loc 1 52 0
 113 0026 7820     		movs	r0, #120
 114 0028 FFF7FEFF 		bl	PWM_2_WriteCompare2
 115              	.LVL14:
  53:main.c        ****     PWM_3_WriteCompare2(PWM);
 116              		.loc 1 53 0
 117 002c 7820     		movs	r0, #120
 118 002e FFF7FEFF 		bl	PWM_3_WriteCompare2
ARM GAS  C:\Users\BRAULI~1\AppData\Local\Temp\ccIX6112.s 			page 4


 119              	.LVL15:
 120 0032 08BD     		pop	{r3, pc}
 121              		.cfi_endproc
 122              	.LFE65:
 123              		.size	backRobot, .-backRobot
 124              		.section	.text.robotLeft,"ax",%progbits
 125              		.align	2
 126              		.global	robotLeft
 127              		.thumb
 128              		.thumb_func
 129              		.type	robotLeft, %function
 130              	robotLeft:
 131              	.LFB66:
  54:main.c        **** }
  55:main.c        **** 
  56:main.c        **** void robotLeft(){
 132              		.loc 1 56 0
 133              		.cfi_startproc
 134              		@ args = 0, pretend = 0, frame = 0
 135              		@ frame_needed = 0, uses_anonymous_args = 0
 136 0000 08B5     		push	{r3, lr}
 137              		.cfi_def_cfa_offset 8
 138              		.cfi_offset 3, -8
 139              		.cfi_offset 14, -4
  57:main.c        ****      PWM_WriteCompare1(PWM);
 140              		.loc 1 57 0
 141 0002 7820     		movs	r0, #120
 142 0004 FFF7FEFF 		bl	PWM_WriteCompare1
 143              	.LVL16:
  58:main.c        ****      PWM_2_WriteCompare1(0);
 144              		.loc 1 58 0
 145 0008 0020     		movs	r0, #0
 146 000a FFF7FEFF 		bl	PWM_2_WriteCompare1
 147              	.LVL17:
  59:main.c        ****      PWM_1_WriteCompare1(0);
 148              		.loc 1 59 0
 149 000e 0020     		movs	r0, #0
 150 0010 FFF7FEFF 		bl	PWM_1_WriteCompare1
 151              	.LVL18:
  60:main.c        ****      PWM_3_WriteCompare1(PWM);
 152              		.loc 1 60 0
 153 0014 7820     		movs	r0, #120
 154 0016 FFF7FEFF 		bl	PWM_3_WriteCompare1
 155              	.LVL19:
  61:main.c        ****          
  62:main.c        ****      PWM_WriteCompare2(0);
 156              		.loc 1 62 0
 157 001a 0020     		movs	r0, #0
 158 001c FFF7FEFF 		bl	PWM_WriteCompare2
 159              	.LVL20:
  63:main.c        ****      PWM_2_WriteCompare2(PWM);
 160              		.loc 1 63 0
 161 0020 7820     		movs	r0, #120
 162 0022 FFF7FEFF 		bl	PWM_2_WriteCompare2
 163              	.LVL21:
  64:main.c        ****      PWM_1_WriteCompare2(PWM);
 164              		.loc 1 64 0
ARM GAS  C:\Users\BRAULI~1\AppData\Local\Temp\ccIX6112.s 			page 5


 165 0026 7820     		movs	r0, #120
 166 0028 FFF7FEFF 		bl	PWM_1_WriteCompare2
 167              	.LVL22:
  65:main.c        ****      PWM_3_WriteCompare2(0);   
 168              		.loc 1 65 0
 169 002c 0020     		movs	r0, #0
 170 002e FFF7FEFF 		bl	PWM_3_WriteCompare2
 171              	.LVL23:
 172 0032 08BD     		pop	{r3, pc}
 173              		.cfi_endproc
 174              	.LFE66:
 175              		.size	robotLeft, .-robotLeft
 176              		.section	.text.robotRight,"ax",%progbits
 177              		.align	2
 178              		.global	robotRight
 179              		.thumb
 180              		.thumb_func
 181              		.type	robotRight, %function
 182              	robotRight:
 183              	.LFB67:
  66:main.c        **** }
  67:main.c        **** 
  68:main.c        **** void robotRight(){
 184              		.loc 1 68 0
 185              		.cfi_startproc
 186              		@ args = 0, pretend = 0, frame = 0
 187              		@ frame_needed = 0, uses_anonymous_args = 0
 188 0000 08B5     		push	{r3, lr}
 189              		.cfi_def_cfa_offset 8
 190              		.cfi_offset 3, -8
 191              		.cfi_offset 14, -4
  69:main.c        ****      PWM_WriteCompare1(0);
 192              		.loc 1 69 0
 193 0002 0020     		movs	r0, #0
 194 0004 FFF7FEFF 		bl	PWM_WriteCompare1
 195              	.LVL24:
  70:main.c        ****      PWM_2_WriteCompare1(PWM);
 196              		.loc 1 70 0
 197 0008 7820     		movs	r0, #120
 198 000a FFF7FEFF 		bl	PWM_2_WriteCompare1
 199              	.LVL25:
  71:main.c        ****      PWM_1_WriteCompare1(PWM);
 200              		.loc 1 71 0
 201 000e 7820     		movs	r0, #120
 202 0010 FFF7FEFF 		bl	PWM_1_WriteCompare1
 203              	.LVL26:
  72:main.c        ****      PWM_3_WriteCompare1(0);
 204              		.loc 1 72 0
 205 0014 0020     		movs	r0, #0
 206 0016 FFF7FEFF 		bl	PWM_3_WriteCompare1
 207              	.LVL27:
  73:main.c        ****          
  74:main.c        ****      PWM_WriteCompare2(PWM);
 208              		.loc 1 74 0
 209 001a 7820     		movs	r0, #120
 210 001c FFF7FEFF 		bl	PWM_WriteCompare2
 211              	.LVL28:
ARM GAS  C:\Users\BRAULI~1\AppData\Local\Temp\ccIX6112.s 			page 6


  75:main.c        ****      PWM_2_WriteCompare2(0);
 212              		.loc 1 75 0
 213 0020 0020     		movs	r0, #0
 214 0022 FFF7FEFF 		bl	PWM_2_WriteCompare2
 215              	.LVL29:
  76:main.c        ****      PWM_1_WriteCompare2(0);
 216              		.loc 1 76 0
 217 0026 0020     		movs	r0, #0
 218 0028 FFF7FEFF 		bl	PWM_1_WriteCompare2
 219              	.LVL30:
  77:main.c        ****      PWM_3_WriteCompare2(PWM);   
 220              		.loc 1 77 0
 221 002c 7820     		movs	r0, #120
 222 002e FFF7FEFF 		bl	PWM_3_WriteCompare2
 223              	.LVL31:
 224 0032 08BD     		pop	{r3, pc}
 225              		.cfi_endproc
 226              	.LFE67:
 227              		.size	robotRight, .-robotRight
 228              		.section	.text.spinLeft,"ax",%progbits
 229              		.align	2
 230              		.global	spinLeft
 231              		.thumb
 232              		.thumb_func
 233              		.type	spinLeft, %function
 234              	spinLeft:
 235              	.LFB68:
  78:main.c        **** }
  79:main.c        **** void spinLeft(){
 236              		.loc 1 79 0
 237              		.cfi_startproc
 238              		@ args = 0, pretend = 0, frame = 0
 239              		@ frame_needed = 0, uses_anonymous_args = 0
 240 0000 08B5     		push	{r3, lr}
 241              		.cfi_def_cfa_offset 8
 242              		.cfi_offset 3, -8
 243              		.cfi_offset 14, -4
  80:main.c        ****      PWM_WriteCompare1(PWM);
 244              		.loc 1 80 0
 245 0002 7820     		movs	r0, #120
 246 0004 FFF7FEFF 		bl	PWM_WriteCompare1
 247              	.LVL32:
  81:main.c        ****      PWM_2_WriteCompare1(PWM);
 248              		.loc 1 81 0
 249 0008 7820     		movs	r0, #120
 250 000a FFF7FEFF 		bl	PWM_2_WriteCompare1
 251              	.LVL33:
  82:main.c        ****      PWM_1_WriteCompare1(0);
 252              		.loc 1 82 0
 253 000e 0020     		movs	r0, #0
 254 0010 FFF7FEFF 		bl	PWM_1_WriteCompare1
 255              	.LVL34:
  83:main.c        ****      PWM_3_WriteCompare1(0);
 256              		.loc 1 83 0
 257 0014 0020     		movs	r0, #0
 258 0016 FFF7FEFF 		bl	PWM_3_WriteCompare1
 259              	.LVL35:
ARM GAS  C:\Users\BRAULI~1\AppData\Local\Temp\ccIX6112.s 			page 7


  84:main.c        ****          
  85:main.c        ****      PWM_WriteCompare2(0);
 260              		.loc 1 85 0
 261 001a 0020     		movs	r0, #0
 262 001c FFF7FEFF 		bl	PWM_WriteCompare2
 263              	.LVL36:
  86:main.c        ****      PWM_2_WriteCompare2(0);
 264              		.loc 1 86 0
 265 0020 0020     		movs	r0, #0
 266 0022 FFF7FEFF 		bl	PWM_2_WriteCompare2
 267              	.LVL37:
  87:main.c        ****      PWM_1_WriteCompare2(PWM);
 268              		.loc 1 87 0
 269 0026 7820     		movs	r0, #120
 270 0028 FFF7FEFF 		bl	PWM_1_WriteCompare2
 271              	.LVL38:
  88:main.c        ****      PWM_3_WriteCompare2(PWM);   
 272              		.loc 1 88 0
 273 002c 7820     		movs	r0, #120
 274 002e FFF7FEFF 		bl	PWM_3_WriteCompare2
 275              	.LVL39:
 276 0032 08BD     		pop	{r3, pc}
 277              		.cfi_endproc
 278              	.LFE68:
 279              		.size	spinLeft, .-spinLeft
 280              		.section	.text.spinRight,"ax",%progbits
 281              		.align	2
 282              		.global	spinRight
 283              		.thumb
 284              		.thumb_func
 285              		.type	spinRight, %function
 286              	spinRight:
 287              	.LFB69:
  89:main.c        **** }
  90:main.c        **** 
  91:main.c        **** void spinRight(){
 288              		.loc 1 91 0
 289              		.cfi_startproc
 290              		@ args = 0, pretend = 0, frame = 0
 291              		@ frame_needed = 0, uses_anonymous_args = 0
 292 0000 08B5     		push	{r3, lr}
 293              		.cfi_def_cfa_offset 8
 294              		.cfi_offset 3, -8
 295              		.cfi_offset 14, -4
  92:main.c        ****      PWM_WriteCompare1(0);
 296              		.loc 1 92 0
 297 0002 0020     		movs	r0, #0
 298 0004 FFF7FEFF 		bl	PWM_WriteCompare1
 299              	.LVL40:
  93:main.c        ****      PWM_2_WriteCompare1(0);
 300              		.loc 1 93 0
 301 0008 0020     		movs	r0, #0
 302 000a FFF7FEFF 		bl	PWM_2_WriteCompare1
 303              	.LVL41:
  94:main.c        ****      PWM_1_WriteCompare1(PWM);
 304              		.loc 1 94 0
 305 000e 7820     		movs	r0, #120
ARM GAS  C:\Users\BRAULI~1\AppData\Local\Temp\ccIX6112.s 			page 8


 306 0010 FFF7FEFF 		bl	PWM_1_WriteCompare1
 307              	.LVL42:
  95:main.c        ****      PWM_3_WriteCompare1(PWM);
 308              		.loc 1 95 0
 309 0014 7820     		movs	r0, #120
 310 0016 FFF7FEFF 		bl	PWM_3_WriteCompare1
 311              	.LVL43:
  96:main.c        ****          
  97:main.c        ****      PWM_WriteCompare2(PWM);
 312              		.loc 1 97 0
 313 001a 7820     		movs	r0, #120
 314 001c FFF7FEFF 		bl	PWM_WriteCompare2
 315              	.LVL44:
  98:main.c        ****      PWM_2_WriteCompare2(PWM);
 316              		.loc 1 98 0
 317 0020 7820     		movs	r0, #120
 318 0022 FFF7FEFF 		bl	PWM_2_WriteCompare2
 319              	.LVL45:
  99:main.c        ****      PWM_1_WriteCompare2(0);
 320              		.loc 1 99 0
 321 0026 0020     		movs	r0, #0
 322 0028 FFF7FEFF 		bl	PWM_1_WriteCompare2
 323              	.LVL46:
 100:main.c        ****      PWM_3_WriteCompare2(0);   
 324              		.loc 1 100 0
 325 002c 0020     		movs	r0, #0
 326 002e FFF7FEFF 		bl	PWM_3_WriteCompare2
 327              	.LVL47:
 328 0032 08BD     		pop	{r3, pc}
 329              		.cfi_endproc
 330              	.LFE69:
 331              		.size	spinRight, .-spinRight
 332              		.section	.text.Turn,"ax",%progbits
 333              		.align	2
 334              		.global	Turn
 335              		.thumb
 336              		.thumb_func
 337              		.type	Turn, %function
 338              	Turn:
 339              	.LFB70:
 101:main.c        **** }
 102:main.c        **** 
 103:main.c        **** void Turn(){
 340              		.loc 1 103 0
 341              		.cfi_startproc
 342              		@ args = 0, pretend = 0, frame = 0
 343              		@ frame_needed = 0, uses_anonymous_args = 0
 344 0000 08B5     		push	{r3, lr}
 345              		.cfi_def_cfa_offset 8
 346              		.cfi_offset 3, -8
 347              		.cfi_offset 14, -4
 104:main.c        ****     PWM_WriteCompare1(PWM);
 348              		.loc 1 104 0
 349 0002 7820     		movs	r0, #120
 350 0004 FFF7FEFF 		bl	PWM_WriteCompare1
 351              	.LVL48:
 105:main.c        ****     PWM_1_WriteCompare1(PWM);
ARM GAS  C:\Users\BRAULI~1\AppData\Local\Temp\ccIX6112.s 			page 9


 352              		.loc 1 105 0
 353 0008 7820     		movs	r0, #120
 354 000a FFF7FEFF 		bl	PWM_1_WriteCompare1
 355              	.LVL49:
 106:main.c        ****     PWM_2_WriteCompare1(0);
 356              		.loc 1 106 0
 357 000e 0020     		movs	r0, #0
 358 0010 FFF7FEFF 		bl	PWM_2_WriteCompare1
 359              	.LVL50:
 107:main.c        ****     PWM_3_WriteCompare1(0);
 360              		.loc 1 107 0
 361 0014 0020     		movs	r0, #0
 362 0016 FFF7FEFF 		bl	PWM_3_WriteCompare1
 363              	.LVL51:
 108:main.c        ****          
 109:main.c        ****     PWM_WriteCompare2(0);
 364              		.loc 1 109 0
 365 001a 0020     		movs	r0, #0
 366 001c FFF7FEFF 		bl	PWM_WriteCompare2
 367              	.LVL52:
 110:main.c        ****     PWM_1_WriteCompare2(0);
 368              		.loc 1 110 0
 369 0020 0020     		movs	r0, #0
 370 0022 FFF7FEFF 		bl	PWM_1_WriteCompare2
 371              	.LVL53:
 111:main.c        ****     PWM_2_WriteCompare2(PWM);
 372              		.loc 1 111 0
 373 0026 7820     		movs	r0, #120
 374 0028 FFF7FEFF 		bl	PWM_2_WriteCompare2
 375              	.LVL54:
 112:main.c        ****     PWM_3_WriteCompare2(PWM);
 376              		.loc 1 112 0
 377 002c 7820     		movs	r0, #120
 378 002e FFF7FEFF 		bl	PWM_3_WriteCompare2
 379              	.LVL55:
 380 0032 08BD     		pop	{r3, pc}
 381              		.cfi_endproc
 382              	.LFE70:
 383              		.size	Turn, .-Turn
 384              		.section	.text.Stop,"ax",%progbits
 385              		.align	2
 386              		.global	Stop
 387              		.thumb
 388              		.thumb_func
 389              		.type	Stop, %function
 390              	Stop:
 391              	.LFB71:
 113:main.c        **** }
 114:main.c        ****  
 115:main.c        **** void Stop(){
 392              		.loc 1 115 0
 393              		.cfi_startproc
 394              		@ args = 0, pretend = 0, frame = 0
 395              		@ frame_needed = 0, uses_anonymous_args = 0
 396 0000 08B5     		push	{r3, lr}
 397              		.cfi_def_cfa_offset 8
 398              		.cfi_offset 3, -8
ARM GAS  C:\Users\BRAULI~1\AppData\Local\Temp\ccIX6112.s 			page 10


 399              		.cfi_offset 14, -4
 116:main.c        ****     PWM_WriteCompare1(0);
 400              		.loc 1 116 0
 401 0002 0020     		movs	r0, #0
 402 0004 FFF7FEFF 		bl	PWM_WriteCompare1
 403              	.LVL56:
 117:main.c        ****     PWM_1_WriteCompare1(0);
 404              		.loc 1 117 0
 405 0008 0020     		movs	r0, #0
 406 000a FFF7FEFF 		bl	PWM_1_WriteCompare1
 407              	.LVL57:
 118:main.c        ****     PWM_2_WriteCompare1(0);
 408              		.loc 1 118 0
 409 000e 0020     		movs	r0, #0
 410 0010 FFF7FEFF 		bl	PWM_2_WriteCompare1
 411              	.LVL58:
 119:main.c        ****     PWM_3_WriteCompare1(0);
 412              		.loc 1 119 0
 413 0014 0020     		movs	r0, #0
 414 0016 FFF7FEFF 		bl	PWM_3_WriteCompare1
 415              	.LVL59:
 120:main.c        **** 
 121:main.c        ****     PWM_WriteCompare2(0);
 416              		.loc 1 121 0
 417 001a 0020     		movs	r0, #0
 418 001c FFF7FEFF 		bl	PWM_WriteCompare2
 419              	.LVL60:
 122:main.c        ****     PWM_1_WriteCompare2(0); 
 420              		.loc 1 122 0
 421 0020 0020     		movs	r0, #0
 422 0022 FFF7FEFF 		bl	PWM_1_WriteCompare2
 423              	.LVL61:
 123:main.c        ****     PWM_2_WriteCompare2(0); 
 424              		.loc 1 123 0
 425 0026 0020     		movs	r0, #0
 426 0028 FFF7FEFF 		bl	PWM_2_WriteCompare2
 427              	.LVL62:
 124:main.c        ****     PWM_3_WriteCompare2(0);  
 428              		.loc 1 124 0
 429 002c 0020     		movs	r0, #0
 430 002e FFF7FEFF 		bl	PWM_3_WriteCompare2
 431              	.LVL63:
 432 0032 08BD     		pop	{r3, pc}
 433              		.cfi_endproc
 434              	.LFE71:
 435              		.size	Stop, .-Stop
 436              		.global	__aeabi_i2d
 437              		.global	__aeabi_ddiv
 438              		.global	__aeabi_d2f
 439              		.global	__aeabi_fcmple
 440              		.section	.text.main,"ax",%progbits
 441              		.align	2
 442              		.global	main
 443              		.thumb
 444              		.thumb_func
 445              		.type	main, %function
 446              	main:
ARM GAS  C:\Users\BRAULI~1\AppData\Local\Temp\ccIX6112.s 			page 11


 447              	.LFB72:
 125:main.c        **** }
 126:main.c        **** 
 127:main.c        **** int main(void) {
 448              		.loc 1 127 0
 449              		.cfi_startproc
 450              		@ Volatile: function does not return.
 451              		@ args = 0, pretend = 0, frame = 0
 452              		@ frame_needed = 0, uses_anonymous_args = 0
 453 0000 08B5     		push	{r3, lr}
 454              		.cfi_def_cfa_offset 8
 455              		.cfi_offset 3, -8
 456              		.cfi_offset 14, -4
 128:main.c        ****     
 129:main.c        ****     CyGlobalIntEnable;      //habilitación de interrupciones globales
 457              		.loc 1 129 0
 458              		.syntax unified
 459              	@ 129 "main.c" 1
 460 0002 62B6     		CPSIE   i
 461              	@ 0 "" 2
 130:main.c        ****     
 131:main.c        ****     Timer_Start();          //Inicialización del timer
 462              		.loc 1 131 0
 463              		.thumb
 464              		.syntax unified
 465 0004 FFF7FEFF 		bl	Timer_Start
 466              	.LVL64:
 132:main.c        ****     QuadDec_Start();
 467              		.loc 1 132 0
 468 0008 FFF7FEFF 		bl	QuadDec_Start
 469              	.LVL65:
 133:main.c        ****     
 134:main.c        ****     UART_Start();
 470              		.loc 1 134 0
 471 000c FFF7FEFF 		bl	UART_Start
 472              	.LVL66:
 135:main.c        ****     UART_Enable(); 
 473              		.loc 1 135 0
 474 0010 FFF7FEFF 		bl	UART_Enable
 475              	.LVL67:
 136:main.c        ****     
 137:main.c        ****     PWM_Start();
 476              		.loc 1 137 0
 477 0014 FFF7FEFF 		bl	PWM_Start
 478              	.LVL68:
 138:main.c        ****     PWM_Enable();
 479              		.loc 1 138 0
 480 0018 FFF7FEFF 		bl	PWM_Enable
 481              	.LVL69:
 139:main.c        ****     PWM_1_Start();
 482              		.loc 1 139 0
 483 001c FFF7FEFF 		bl	PWM_1_Start
 484              	.LVL70:
 140:main.c        ****     PWM_1_Enable();    
 485              		.loc 1 140 0
 486 0020 FFF7FEFF 		bl	PWM_1_Enable
 487              	.LVL71:
ARM GAS  C:\Users\BRAULI~1\AppData\Local\Temp\ccIX6112.s 			page 12


 141:main.c        ****     PWM_2_Start();
 488              		.loc 1 141 0
 489 0024 FFF7FEFF 		bl	PWM_2_Start
 490              	.LVL72:
 142:main.c        ****     PWM_2_Enable();   
 491              		.loc 1 142 0
 492 0028 FFF7FEFF 		bl	PWM_2_Enable
 493              	.LVL73:
 143:main.c        ****     PWM_3_Start();
 494              		.loc 1 143 0
 495 002c FFF7FEFF 		bl	PWM_3_Start
 496              	.LVL74:
 144:main.c        ****     PWM_3_Enable();
 497              		.loc 1 144 0
 498 0030 FFF7FEFF 		bl	PWM_3_Enable
 499              	.LVL75:
 500              	.L18:
 145:main.c        ****  
 146:main.c        ****     for(;;)
 147:main.c        ****     {
 148:main.c        ****         if(dataIn <= 3){
 501              		.loc 1 148 0
 502 0034 574B     		ldr	r3, .L41
 503 0036 1B68     		ldr	r3, [r3]
 504 0038 032B     		cmp	r3, #3
 505 003a 0CDC     		bgt	.L19
 149:main.c        ****             dato_lit_car = UART_GetChar();
 506              		.loc 1 149 0
 507 003c FFF7FEFF 		bl	UART_GetChar
 508              	.LVL76:
 509 0040 554B     		ldr	r3, .L41+4
 510 0042 1870     		strb	r0, [r3]
 150:main.c        ****         if(dato_lit_car != ' '){
 511              		.loc 1 150 0
 512 0044 2028     		cmp	r0, #32
 513 0046 0CD0     		beq	.L20
 151:main.c        ****             string[dataIn] = dato_lit_car;
 514              		.loc 1 151 0
 515 0048 524A     		ldr	r2, .L41
 516 004a 1368     		ldr	r3, [r2]
 517 004c 5349     		ldr	r1, .L41+8
 518 004e C854     		strb	r0, [r1, r3]
 152:main.c        ****             dataIn++;}
 519              		.loc 1 152 0
 520 0050 0133     		adds	r3, r3, #1
 521 0052 1360     		str	r3, [r2]
 522 0054 05E0     		b	.L20
 523              	.L19:
 153:main.c        ****         }   
 154:main.c        ****         else {
 155:main.c        ****             UART_PutString(string);
 524              		.loc 1 155 0
 525 0056 5148     		ldr	r0, .L41+8
 526 0058 FFF7FEFF 		bl	UART_PutString
 527              	.LVL77:
 156:main.c        ****             dataIn=0;
 528              		.loc 1 156 0
ARM GAS  C:\Users\BRAULI~1\AppData\Local\Temp\ccIX6112.s 			page 13


 529 005c 0022     		movs	r2, #0
 530 005e 4D4B     		ldr	r3, .L41
 531 0060 1A60     		str	r2, [r3]
 532              	.L20:
 157:main.c        ****         }
 158:main.c        ****         
 159:main.c        ****         if (string[1] == 'w') {
 533              		.loc 1 159 0
 534 0062 4E4B     		ldr	r3, .L41+8
 535 0064 5B78     		ldrb	r3, [r3, #1]	@ zero_extendqisi2
 536 0066 772B     		cmp	r3, #119
 537 0068 02D1     		bne	.L21
 160:main.c        ****             robot_state=CONTROLLER; 
 538              		.loc 1 160 0
 539 006a 0121     		movs	r1, #1
 540 006c 4C4A     		ldr	r2, .L41+12
 541 006e 1160     		str	r1, [r2]
 542              	.L21:
 161:main.c        ****         }
 162:main.c        ****         if (string[1] == 'g') {
 543              		.loc 1 162 0
 544 0070 672B     		cmp	r3, #103
 545 0072 02D1     		bne	.L22
 163:main.c        ****             robot_state=AUTONOMOUS; 
 546              		.loc 1 163 0
 547 0074 0022     		movs	r2, #0
 548 0076 4A4B     		ldr	r3, .L41+12
 549 0078 1A60     		str	r2, [r3]
 550              	.L22:
 164:main.c        ****         }
 165:main.c        ****         if (robot_state == CONTROLLER) {
 551              		.loc 1 165 0
 552 007a 494B     		ldr	r3, .L41+12
 553 007c 1B68     		ldr	r3, [r3]
 554 007e 012B     		cmp	r3, #1
 555 0080 01D1     		bne	.L23
 166:main.c        ****             Stop(); 
 556              		.loc 1 166 0
 557 0082 FFF7FEFF 		bl	Stop
 558              	.LVL78:
 559              	.L23:
 167:main.c        ****         }
 168:main.c        ****         if (string[1] == 'u' && robot_state==CONTROLLER) {
 560              		.loc 1 168 0
 561 0086 454B     		ldr	r3, .L41+8
 562 0088 5B78     		ldrb	r3, [r3, #1]	@ zero_extendqisi2
 563 008a 752B     		cmp	r3, #117
 564 008c 05D1     		bne	.L24
 565              		.loc 1 168 0 is_stmt 0 discriminator 1
 566 008e 444B     		ldr	r3, .L41+12
 567 0090 1B68     		ldr	r3, [r3]
 568 0092 012B     		cmp	r3, #1
 569 0094 01D1     		bne	.L24
 169:main.c        ****             goRobot();   
 570              		.loc 1 169 0 is_stmt 1
 571 0096 FFF7FEFF 		bl	goRobot
 572              	.LVL79:
ARM GAS  C:\Users\BRAULI~1\AppData\Local\Temp\ccIX6112.s 			page 14


 573              	.L24:
 170:main.c        ****         }
 171:main.c        ****         if (string[1] == 'd' && robot_state==CONTROLLER) {
 574              		.loc 1 171 0
 575 009a 404B     		ldr	r3, .L41+8
 576 009c 5B78     		ldrb	r3, [r3, #1]	@ zero_extendqisi2
 577 009e 642B     		cmp	r3, #100
 578 00a0 05D1     		bne	.L25
 579              		.loc 1 171 0 is_stmt 0 discriminator 1
 580 00a2 3F4B     		ldr	r3, .L41+12
 581 00a4 1B68     		ldr	r3, [r3]
 582 00a6 012B     		cmp	r3, #1
 583 00a8 01D1     		bne	.L25
 172:main.c        ****             backRobot();    
 584              		.loc 1 172 0 is_stmt 1
 585 00aa FFF7FEFF 		bl	backRobot
 586              	.LVL80:
 587              	.L25:
 173:main.c        ****         }
 174:main.c        ****         if (string[1] == 'l' && robot_state==CONTROLLER) { 
 588              		.loc 1 174 0
 589 00ae 3B4B     		ldr	r3, .L41+8
 590 00b0 5B78     		ldrb	r3, [r3, #1]	@ zero_extendqisi2
 591 00b2 6C2B     		cmp	r3, #108
 592 00b4 05D1     		bne	.L26
 593              		.loc 1 174 0 is_stmt 0 discriminator 1
 594 00b6 3A4B     		ldr	r3, .L41+12
 595 00b8 1B68     		ldr	r3, [r3]
 596 00ba 012B     		cmp	r3, #1
 597 00bc 01D1     		bne	.L26
 175:main.c        ****             robotLeft(); 
 598              		.loc 1 175 0 is_stmt 1
 599 00be FFF7FEFF 		bl	robotLeft
 600              	.LVL81:
 601              	.L26:
 176:main.c        ****         }
 177:main.c        ****         if (string[1] == 'r' && robot_state==CONTROLLER) {
 602              		.loc 1 177 0
 603 00c2 364B     		ldr	r3, .L41+8
 604 00c4 5B78     		ldrb	r3, [r3, #1]	@ zero_extendqisi2
 605 00c6 722B     		cmp	r3, #114
 606 00c8 05D1     		bne	.L27
 607              		.loc 1 177 0 is_stmt 0 discriminator 1
 608 00ca 354B     		ldr	r3, .L41+12
 609 00cc 1B68     		ldr	r3, [r3]
 610 00ce 012B     		cmp	r3, #1
 611 00d0 01D1     		bne	.L27
 178:main.c        ****             robotRight(); 
 612              		.loc 1 178 0 is_stmt 1
 613 00d2 FFF7FEFF 		bl	robotRight
 614              	.LVL82:
 615              	.L27:
 179:main.c        ****         }
 180:main.c        ****         if (string[1] == 'f' && robot_state==CONTROLLER) {
 616              		.loc 1 180 0
 617 00d6 314B     		ldr	r3, .L41+8
 618 00d8 5B78     		ldrb	r3, [r3, #1]	@ zero_extendqisi2
ARM GAS  C:\Users\BRAULI~1\AppData\Local\Temp\ccIX6112.s 			page 15


 619 00da 662B     		cmp	r3, #102
 620 00dc 05D1     		bne	.L28
 621              		.loc 1 180 0 is_stmt 0 discriminator 1
 622 00de 304B     		ldr	r3, .L41+12
 623 00e0 1B68     		ldr	r3, [r3]
 624 00e2 012B     		cmp	r3, #1
 625 00e4 01D1     		bne	.L28
 181:main.c        ****             spinRight(); 
 626              		.loc 1 181 0 is_stmt 1
 627 00e6 FFF7FEFF 		bl	spinRight
 628              	.LVL83:
 629              	.L28:
 182:main.c        ****         } 
 183:main.c        ****         if (string[1] == 'a' && robot_state==CONTROLLER) {
 630              		.loc 1 183 0
 631 00ea 2C4B     		ldr	r3, .L41+8
 632 00ec 5B78     		ldrb	r3, [r3, #1]	@ zero_extendqisi2
 633 00ee 612B     		cmp	r3, #97
 634 00f0 05D1     		bne	.L29
 635              		.loc 1 183 0 is_stmt 0 discriminator 1
 636 00f2 2B4B     		ldr	r3, .L41+12
 637 00f4 1B68     		ldr	r3, [r3]
 638 00f6 012B     		cmp	r3, #1
 639 00f8 01D1     		bne	.L29
 184:main.c        ****             spinLeft(); 
 640              		.loc 1 184 0 is_stmt 1
 641 00fa FFF7FEFF 		bl	spinLeft
 642              	.LVL84:
 643              	.L29:
 185:main.c        ****         } 
 186:main.c        ****         if (string[1] == 's') {
 644              		.loc 1 186 0
 645 00fe 274B     		ldr	r3, .L41+8
 646 0100 5B78     		ldrb	r3, [r3, #1]	@ zero_extendqisi2
 647 0102 732B     		cmp	r3, #115
 648 0104 0ED1     		bne	.L31
 187:main.c        ****             Stop();  
 649              		.loc 1 187 0
 650 0106 FFF7FEFF 		bl	Stop
 651              	.LVL85:
 652 010a 0BE0     		b	.L31
 653              	.L32:
 188:main.c        ****         }   
 189:main.c        ****         
 190:main.c        **** ////////////////////////////////////////////////////////////////////////////////////////////////   
 191:main.c        **** 
 192:main.c        ****         while(echo_Read()==0)
 193:main.c        ****         {
 194:main.c        ****             Trigger_out_Write(1);
 654              		.loc 1 194 0
 655 010c 0120     		movs	r0, #1
 656 010e FFF7FEFF 		bl	Trigger_out_Write
 657              	.LVL86:
 195:main.c        ****             CyDelay(10u);        
 658              		.loc 1 195 0
 659 0112 0A20     		movs	r0, #10
 660 0114 FFF7FEFF 		bl	CyDelay
ARM GAS  C:\Users\BRAULI~1\AppData\Local\Temp\ccIX6112.s 			page 16


 661              	.LVL87:
 196:main.c        ****             Trigger_out_Write(0);
 662              		.loc 1 196 0
 663 0118 0020     		movs	r0, #0
 664 011a FFF7FEFF 		bl	Trigger_out_Write
 665              	.LVL88:
 197:main.c        ****             CyDelay(1);          
 666              		.loc 1 197 0
 667 011e 0120     		movs	r0, #1
 668 0120 FFF7FEFF 		bl	CyDelay
 669              	.LVL89:
 670              	.L31:
 192:main.c        ****         {
 671              		.loc 1 192 0
 672 0124 FFF7FEFF 		bl	echo_Read
 673              	.LVL90:
 674 0128 0028     		cmp	r0, #0
 675 012a EFD0     		beq	.L32
 676              	.L33:
 198:main.c        ****         }
 199:main.c        ****         while(echo_Read()== 1) {}; 
 677              		.loc 1 199 0 discriminator 1
 678 012c FFF7FEFF 		bl	echo_Read
 679              	.LVL91:
 680 0130 0128     		cmp	r0, #1
 681 0132 FBD0     		beq	.L33
 200:main.c        ****         
 201:main.c        ****         value_counter = 65535-Timer_ReadCounter();        
 682              		.loc 1 201 0
 683 0134 FFF7FEFF 		bl	Timer_ReadCounter
 684              	.LVL92:
 685 0138 C0F57F40 		rsb	r0, r0, #65280
 686 013c FF30     		adds	r0, r0, #255
 687 013e 154C     		ldr	r4, .L41
 688 0140 6060     		str	r0, [r4, #4]
 202:main.c        ****         distancia = value_counter / 58.0 ;        
 689              		.loc 1 202 0
 690 0142 FFF7FEFF 		bl	__aeabi_i2d
 691              	.LVL93:
 692 0146 0022     		movs	r2, #0
 693 0148 164B     		ldr	r3, .L41+16
 694 014a FFF7FEFF 		bl	__aeabi_ddiv
 695              	.LVL94:
 696 014e FFF7FEFF 		bl	__aeabi_d2f
 697              	.LVL95:
 698 0152 A060     		str	r0, [r4, #8]	@ float
 203:main.c        ****                      
 204:main.c        ****         if (distancia <= 30 && robot_state==AUTONOMOUS) { //Solo si la distancia es menor a 30cm
 699              		.loc 1 204 0
 700 0154 1449     		ldr	r1, .L41+20
 701 0156 FFF7FEFF 		bl	__aeabi_fcmple
 702              	.LVL96:
 703 015a 40B1     		cbz	r0, .L34
 704              		.loc 1 204 0 is_stmt 0 discriminator 1
 705 015c 104B     		ldr	r3, .L41+12
 706 015e 1B68     		ldr	r3, [r3]
 707 0160 2BB9     		cbnz	r3, .L34
ARM GAS  C:\Users\BRAULI~1\AppData\Local\Temp\ccIX6112.s 			page 17


 205:main.c        ****             robot_state=AUTONOMOUS; 
 708              		.loc 1 205 0 is_stmt 1
 709 0162 0022     		movs	r2, #0
 710 0164 0E4B     		ldr	r3, .L41+12
 711 0166 1A60     		str	r2, [r3]
 206:main.c        ****             goRobot(); 
 712              		.loc 1 206 0
 713 0168 FFF7FEFF 		bl	goRobot
 714              	.LVL97:
 715 016c 02E0     		b	.L36
 716              	.L34:
 207:main.c        ****         }
 208:main.c        ****         else {
 209:main.c        ****             i=1;
 717              		.loc 1 209 0
 718 016e 0122     		movs	r2, #1
 719 0170 084B     		ldr	r3, .L41
 720 0172 DA60     		str	r2, [r3, #12]
 721              	.L36:
 210:main.c        ****         }    
 211:main.c        ****         if (i>=1 && i<40) {
 722              		.loc 1 211 0
 723 0174 074B     		ldr	r3, .L41
 724 0176 DB68     		ldr	r3, [r3, #12]
 725 0178 013B     		subs	r3, r3, #1
 726 017a 262B     		cmp	r3, #38
 727 017c 06D8     		bhi	.L37
 212:main.c        ****             Turn(); 
 728              		.loc 1 212 0
 729 017e FFF7FEFF 		bl	Turn
 730              	.LVL98:
 213:main.c        ****             i++;
 731              		.loc 1 213 0
 732 0182 044A     		ldr	r2, .L41
 733 0184 D368     		ldr	r3, [r2, #12]
 734 0186 0133     		adds	r3, r3, #1
 735 0188 D360     		str	r3, [r2, #12]
 736 018a 53E7     		b	.L18
 737              	.L37:
 214:main.c        ****         } 
 215:main.c        ****         else {
 216:main.c        ****            i=0; 
 738              		.loc 1 216 0
 739 018c 0022     		movs	r2, #0
 740 018e 014B     		ldr	r3, .L41
 741 0190 DA60     		str	r2, [r3, #12]
 742 0192 4FE7     		b	.L18
 743              	.L42:
 744              		.align	2
 745              	.L41:
 746 0194 00000000 		.word	.LANCHOR0
 747 0198 00000000 		.word	dato_lit_car
 748 019c 00000000 		.word	string
 749 01a0 00000000 		.word	robot_state
 750 01a4 00004D40 		.word	1078788096
 751 01a8 0000F041 		.word	1106247680
 752              		.cfi_endproc
ARM GAS  C:\Users\BRAULI~1\AppData\Local\Temp\ccIX6112.s 			page 18


 753              	.LFE72:
 754              		.size	main, .-main
 755              		.comm	dato_lit_car,1,1
 756              		.comm	string,3,4
 757              		.comm	data,2,4
 758              		.global	distancia
 759              		.global	i
 760              		.comm	state,4,4
 761              		.comm	robot_state,4,4
 762              		.global	dataIn
 763              		.global	comp
 764              		.global	stop
 765              		.global	con
 766              		.global	value_counter
 767              		.comm	StringToPrint,32,4
 768              		.bss
 769              		.align	2
 770              		.set	.LANCHOR0,. + 0
 771              		.type	dataIn, %object
 772              		.size	dataIn, 4
 773              	dataIn:
 774 0000 00000000 		.space	4
 775              		.type	value_counter, %object
 776              		.size	value_counter, 4
 777              	value_counter:
 778 0004 00000000 		.space	4
 779              		.type	distancia, %object
 780              		.size	distancia, 4
 781              	distancia:
 782 0008 00000000 		.space	4
 783              		.type	i, %object
 784              		.size	i, 4
 785              	i:
 786 000c 00000000 		.space	4
 787              		.type	comp, %object
 788              		.size	comp, 4
 789              	comp:
 790 0010 00000000 		.space	4
 791              		.type	stop, %object
 792              		.size	stop, 4
 793              	stop:
 794 0014 00000000 		.space	4
 795              		.type	con, %object
 796              		.size	con, 4
 797              	con:
 798 0018 00000000 		.space	4
 799              		.text
 800              	.Letext0:
 801              		.file 2 "c:\\program files (x86)\\cypress\\psoc creator\\4.2\\psoc creator\\import\\gnu\\arm\\5.4.
 802              		.file 3 "c:\\program files (x86)\\cypress\\psoc creator\\4.2\\psoc creator\\import\\gnu\\arm\\5.4.
 803              		.file 4 "Generated_Source\\PSoC5/core_cm3.h"
 804              		.file 5 "Generated_Source\\PSoC5/PWM.h"
 805              		.file 6 "Generated_Source\\PSoC5/PWM_1.h"
 806              		.file 7 "Generated_Source\\PSoC5/PWM_2.h"
 807              		.file 8 "Generated_Source\\PSoC5/PWM_3.h"
 808              		.file 9 "Generated_Source\\PSoC5/Timer.h"
 809              		.file 10 "Generated_Source\\PSoC5/QuadDec.h"
ARM GAS  C:\Users\BRAULI~1\AppData\Local\Temp\ccIX6112.s 			page 19


 810              		.file 11 "Generated_Source\\PSoC5/UART.h"
 811              		.file 12 "Generated_Source\\PSoC5/Trigger_out.h"
 812              		.file 13 "Generated_Source\\PSoC5/CyLib.h"
 813              		.file 14 "Generated_Source\\PSoC5/echo.h"